(dp1
S'25025091600'
p2
F1.7237569060773481
sS'25025090100'
p3
F2.4143646408839778
sS'25025120700'
p4
F0.33701657458563539
sS'25025070300'
p5
F1.4530386740331491
sS'25025050101'
p6
F1.4033149171270718
sS'25025981700'
p7
F0.033149171270718231
sS'25025081100'
p8
F0.55801104972375692
sS'25025080300'
p9
F1.0497237569060773
sS'25025100500'
p10
F2.7458563535911602
sS'25025110301'
p11
F0.425414364640884
sS'25025040300'
p12
F1.0994475138121547
sS'25025060800'
p13
F0.83425414364640882
sS'25025120103'
p14
F0.29281767955801102
sS'25025020302'
p15
F0.29281767955801102
sS'25025020303'
p16
F1.729281767955801
sS'25025000202'
p17
F0.65193370165745856
sS'25025000201'
p18
F0.5524861878453039
sS'25025060301'
p19
F0.95027624309392267
sS'25025120105'
p20
F0.43646408839779005
sS'25025120201'
p21
F0.83977900552486184
sS'25025120104'
p22
F0.58563535911602205
sS'25025120301'
p23
F2.3867403314917128
sS'25025061000'
p24
F0.81767955801104975
sS'25025091100'
p25
F1.3922651933701657
sS'25025050700'
p26
F0.84530386740331487
sS'25025030400'
p27
F0.39779005524861877
sS'25025100100'
p28
F3.8563535911602211
sS'25025092101'
p29
F2.8895027624309391
sS'25025081200'
p30
F2.2928176795580111
sS'25025000502'
p31
F0.54143646408839774
sS'25025080100'
p32
F1.8618784530386741
sS'25025050300'
p33
F1.0607734806629834
sS'25025060700'
p34
F0.56906077348066297
sS'25025000602'
p35
F1.729281767955801
sS'25025081800'
p36
F2.0939226519337018
sS'25025981300'
p37
F0.19889502762430938
sS'25025040600'
p38
F1.5303867403314917
sS'25025080900'
p39
F0.59668508287292821
sS'25025080801'
p40
F1.4917127071823204
sS'25025092000'
p41
F2.2817679558011048
sS'25025090901'
p42
F0.86187845303867405
sS'25025091500'
p43
F2.0386740331491713
sS'25025090300'
p44
F1.718232044198895
sS'25025010801'
p45
F0.20441988950276244
sS'25025090200'
p46
F1.0828729281767955
sS'25025050400'
p47
F0.83977900552486184
sS'25025100200'
p48
F1.3646408839779005
sS'25025981600'
p49
F0
sS'25025000100'
p50
F1.3867403314917126
sS'25025050901'
p51
F0.81767955801104975
sS'25025010204'
p52
F0.40883977900552487
sS'25025101101'
p53
F1.1049723756906078
sS'25025101102'
p54
F2.430939226519337
sS'25025110201'
p55
F0.61878453038674031
sS'25025140400'
p56
F2.403314917127072
sS'25025000601'
p57
F0.89502762430939231
sS'25025100800'
p58
F2.3370165745856353
sS'25025040200'
p59
F0.71823204419889508
sS'25025020200'
p60
F0.56353591160220995
sS'25025080601'
p61
F2.2320441988950277
sS'25025000503'
p62
F0.22651933701657459
sS'25025000504'
p63
F1.3867403314917126
sS'25025010701'
p64
F0.96685082872928174
sS'25025981100'
p65
F0.033149171270718231
sS'25025081700'
p66
F2.3425414364640882
sS'25025071201'
p67
F2.8287292817679557
sS'25025010702'
p68
F1.3370165745856353
sS'25025090600'
p69
F1.0607734806629834
sS'25025070700'
p70
F1.4806629834254144
sS'25025060501'
p71
F0.62983425414364635
sS'25025091001'
p72
F1.569060773480663
sS'25025030500'
p73
F0.20441988950276244
sS'25025120400'
p74
F1.8342541436464088
sS'25025020301'
p75
F0.81767955801104975
sS'25025000402'
p76
F0.39226519337016574
sS'25025140107'
p77
F0.88950276243093918
sS'25025140106'
p78
F0.64640883977900554
sS'25025140105'
p79
F0.79558011049723754
sS'25025070402'
p80
F0.33149171270718231
sS'25025140102'
p81
F1.3535911602209945
sS'25025040100'
p82
F0.81215469613259672
sS'25025081900'
p83
F1.4419889502762431
sS'25025100601'
p84
F1.430939226519337
sS'25025981201'
p85
F0.0055248618784530384
sS'25025100603'
p86
F0.7458563535911602
sS'25025081300'
p87
F4.1988950276243093
sS'25025981502'
p88
F0
sS'25025051000'
p89
F1.1767955801104972
sS'25025030200'
p90
F0.24861878453038674
sS'25025100700'
p91
F1.3093922651933703
sS'25025000803'
p92
F0.52486187845303867
sS'25025000802'
p93
F1.9226519337016574
sS'25025091400'
p94
F1.8453038674033149
sS'25025110502'
p95
F1.298342541436464
sS'25025110501'
p96
F0.55801104972375692
sS'25025051200'
p97
F1.1712707182320441
sS'25025070101'
p98
F5.8232044198895023
sS'25025010300'
p99
F0.88397790055248615
sS'25025050500'
p100
F0.32044198895027626
sS'25025080500'
p101
F1.4640883977900552
sS'25025060200'
p102
F0.23204419889502761
sS'25025130200'
p103
F1.2265193370165746
sS'25025101001'
p104
F2.7955801104972378
sS'25025101002'
p105
F2.5745856353591159
sS'25025110103'
p106
F2.834254143646409
sS'25025070900'
p107
F1.1878453038674033
sS'25025130402'
p108
F1.3756906077348066
sS'25025030100'
p109
F0.35911602209944754
sS'25025100300'
p110
F1.4143646408839778
sS'25025070600'
p111
F0.2983425414364641
sS'25025981000'
p112
F0.0055248618784530384
sS'25025081400'
p113
F1.7127071823204421
sS'25025090700'
p114
F2.1767955801104972
sS'25025092200'
p115
F1.7127071823204421
sS'25025010802'
p116
F0.16574585635359115
sS'25025091900'
p117
F1.8895027624309393
sS'25025092400'
p118
F3.2762430939226519
sS'25025091700'
p119
F1.3038674033149171
sS'25025140201'
p120
F0.4585635359116022
sS'25025140202'
p121
F1.5469613259668509
sS'25025000401'
p122
F1.4861878453038675
sS'25025100900'
p123
F1.1767955801104972
sS'25025040401'
p124
F0.97237569060773477
sS'25025981800'
p125
F0.038674033149171269
sS'25025061101'
p126
F1.5414364640883977
sS'25025120500'
p127
F0.98895027624309395
sS'25025020101'
p128
F0.46408839779005523
sS'25025070500'
p129
F1.1160220994475138
sS'25025070200'
p130
F1.4364640883977902
sS'25025082000'
p131
F1.6132596685082874
sS'25025010203'
p132
F1.3812154696132597
sS'25025060400'
p133
F1.0331491712707181
sS'25025040801'
p134
F4.624309392265193
sS'25025081001'
p135
F2.2320441988950277
sS'25025030300'
p136
F4.2872928176795577
sS'25025100400'
p137
F1.9392265193370166
sS'25025130100'
p138
F1.729281767955801
sS'25025090400'
p139
F1.4806629834254144
sS'25025110403'
p140
F1.1049723756906078
sS'25025110401'
p141
F1.0883977900552486
sS'25025051101'
p142
F1.5856353591160222
sS'25025980700'
p143
F0.038674033149171269
sS'25025080401'
p144
F2.6740331491712706
sS'25025000302'
p145
F0.39779005524861877
sS'25025071101'
p146
F3.2265193370165748
sS'25025000301'
p147
F0.77348066298342544
sS'25025082100'
p148
F3.3480662983425415
sS'25025010403'
p149
F1.0828729281767955
sS'25025010404'
p150
F0.76243093922651939
sS'25025010405'
p151
F1.6850828729281768
sS'25025010408'
p152
F0.10497237569060773
sS'25025060101'
p153
F0.58011049723756902
sS'25025091300'
p154
F1.2596685082872927
sS'25025060600'
p155
F1.839779005524862
sS'25025091200'
p156
F1.5193370165745856
sS'25025050600'
p157
F0.71270718232044195
sS'25025130300'
p158
F0.99447513812154698
sS'25025010500'
p159
F1.1878453038674033
sS'25025081500'
p160
F0.69060773480662985
sS'25025130404'
p161
F1.2265193370165746
sS'25025130406'
p162
F1.6519337016574585
sS'25025092300'
p163
F1.5414364640883977
sS'25025091800'
p164
F1.988950276243094
sS'25025980300'
p165
F0.15469613259668508
sS'25025050200'
p166
F0.95027624309392267
sS'25025140300'
p167
F3.5248618784530388
sS'25025000703'
p168
F0.64640883977900554
sS'25025110607'
p169
F1.2375690607734806
sS'25025000701'
p170
F0.62430939226519333
sS'25025110601'
p171
F0.5524861878453039
sS'25025000704'
p172
F0.49171270718232046
sS'25025981202'
p173
F0.19889502762430938
sS'25025010600'
p174
F3.5027624309392267
sS'25025010103'
p175
F0.27624309392265195
sS'25025010104'
p176
F0.850828729281768
sS'25025061200'
p177
F1.9502762430939227
sS'25025070800'
p178
F0.86187845303867405
sS'25025120600'
p179
F0.2983425414364641
s.