(dp1
S'25025091600'
p2
F11.425414364640885
sS'25025090100'
p3
F11.044198895027625
sS'25025120700'
p4
F2.3370165745856353
sS'25025070300'
p5
F15.143646408839778
sS'25025050101'
p6
F4.2486187845303869
sS'25025981700'
p7
F0.34254143646408841
sS'25025081100'
p8
F3.5801104972375692
sS'25025080300'
p9
F6.4254143646408837
sS'25025100500'
p10
F14.447513812154696
sS'25025110301'
p11
F3.1215469613259668
sS'25025040300'
p12
F8.4198895027624303
sS'25025060800'
p13
F5.7790055248618781
sS'25025120103'
p14
F3.298342541436464
sS'25025020302'
p15
F1.9558011049723756
sS'25025020303'
p16
F11.541436464088397
sS'25025000202'
p17
F4.8895027624309391
sS'25025000201'
p18
F2.8176795580110499
sS'25025060301'
p19
F3.541436464088398
sS'25025120105'
p20
F5.0662983425414367
sS'25025120201'
p21
F5.027624309392265
sS'25025120104'
p22
F4.6408839779005522
sS'25025120301'
p23
F18.453038674033149
sS'25025061000'
p24
F3.2375690607734806
sS'25025091100'
p25
F5.6132596685082872
sS'25025050700'
p26
F6.3480662983425411
sS'25025030400'
p27
F4.2209944751381219
sS'25025100100'
p28
F14.696132596685082
sS'25025092101'
p29
F19.651933701657459
sS'25025081200'
p30
F6.1104972375690609
sS'25025000502'
p31
F4.9668508287292816
sS'25025080100'
p32
F11.220994475138122
sS'25025050300'
p33
F4.9834254143646408
sS'25025060700'
p34
F1.850828729281768
sS'25025000602'
p35
F8.6629834254143638
sS'25025081800'
p36
F10.845303867403315
sS'25025981300'
p37
F1.0939226519337018
sS'25025040600'
p38
F10.955801104972375
sS'25025080900'
p39
F5.3149171270718236
sS'25025080801'
p40
F4.4861878453038671
sS'25025092000'
p41
F8.6077348066298338
sS'25025090901'
p42
F3.8950276243093924
sS'25025091500'
p43
F9.0220994475138117
sS'25025090300'
p44
F6.569060773480663
sS'25025010801'
p45
F1.8287292817679559
sS'25025090200'
p46
F5.4419889502762429
sS'25025050400'
p47
F4.9944751381215466
sS'25025100200'
p48
F5.1491712707182318
sS'25025981600'
p49
F0.16574585635359115
sS'25025000100'
p50
F11.762430939226519
sS'25025050901'
p51
F5.1436464088397793
sS'25025010204'
p52
F3.4530386740331491
sS'25025101101'
p53
F6.3480662983425411
sS'25025101102'
p54
F10.88950276243094
sS'25025110201'
p55
F3.5745856353591159
sS'25025140400'
p56
F10.408839779005525
sS'25025000601'
p57
F6.2099447513812152
sS'25025100800'
p58
F17.099447513812155
sS'25025040200'
p59
F2
sS'25025020200'
p60
F5.2265193370165743
sS'25025080601'
p61
F13.397790055248619
sS'25025000503'
p62
F1.5027624309392265
sS'25025000504'
p63
F7.4475138121546962
sS'25025010701'
p64
F11.486187845303867
sS'25025981100'
p65
F0.77348066298342544
sS'25025081700'
p66
F7.7569060773480665
sS'25025071201'
p67
F17.248618784530386
sS'25025010702'
p68
F15.027624309392266
sS'25025090600'
p69
F11.618784530386741
sS'25025070700'
p70
F7.2817679558011053
sS'25025060501'
p71
F5.027624309392265
sS'25025091001'
p72
F9.7237569060773481
sS'25025030500'
p73
F2.0497237569060776
sS'25025120400'
p74
F10.011049723756907
sS'25025020301'
p75
F5.6906077348066297
sS'25025000402'
p76
F5.2265193370165743
sS'25025140107'
p77
F5.4419889502762429
sS'25025140106'
p78
F1.988950276243094
sS'25025140105'
p79
F7.3922651933701662
sS'25025070402'
p80
F3.0939226519337018
sS'25025140102'
p81
F9.3535911602209953
sS'25025040100'
p82
F4.834254143646409
sS'25025081900'
p83
F6.5580110497237571
sS'25025100601'
p84
F7.4751381215469612
sS'25025981201'
p85
F0.15469613259668508
sS'25025100603'
p86
F5.6961325966850831
sS'25025081300'
p87
F16.044198895027623
sS'25025981502'
p88
F0.011049723756906077
sS'25025051000'
p89
F4.0994475138121551
sS'25025030200'
p90
F2.2430939226519335
sS'25025100700'
p91
F6.5801104972375688
sS'25025000803'
p92
F3.6353591160220993
sS'25025000802'
p93
F23.591160220994475
sS'25025091400'
p94
F9.4530386740331487
sS'25025110502'
p95
F7.6187845303867405
sS'25025110501'
p96
F5.458563535911602
sS'25025051200'
p97
F3.1381215469613259
sS'25025070101'
p98
F54.22099447513812
sS'25025010300'
p99
F5.6519337016574589
sS'25025050500'
p100
F2.839779005524862
sS'25025080500'
p101
F6.8674033149171274
sS'25025060200'
p102
F1.7348066298342542
sS'25025130200'
p103
F5.8895027624309391
sS'25025101001'
p104
F19.49171270718232
sS'25025101002'
p105
F11.320441988950277
sS'25025110103'
p106
F9.7845303867403324
sS'25025070900'
p107
F4.8232044198895023
sS'25025130402'
p108
F8.7237569060773481
sS'25025030100'
p109
F1.6961325966850829
sS'25025100300'
p110
F5.2596685082872927
sS'25025070600'
p111
F5.9834254143646408
sS'25025981000'
p112
F0.10497237569060773
sS'25025081400'
p113
F7.403314917127072
sS'25025090700'
p114
F15.646408839779005
sS'25025092200'
p115
F11.94475138121547
sS'25025010802'
p116
F2.3812154696132595
sS'25025091900'
p117
F8.9060773480662991
sS'25025092400'
p118
F17.596685082872927
sS'25025091700'
p119
F5.3535911602209945
sS'25025140201'
p120
F2.5801104972375692
sS'25025140202'
p121
F7.7513812154696131
sS'25025000401'
p122
F4.5027624309392262
sS'25025100900'
p123
F7.596685082872928
sS'25025040401'
p124
F5.4751381215469612
sS'25025981800'
p125
F0.37016574585635359
sS'25025061101'
p126
F4.4917127071823204
sS'25025120500'
p127
F6.9337016574585633
sS'25025020101'
p128
F5.0497237569060776
sS'25025070500'
p129
F5.9613259668508292
sS'25025070200'
p130
F10.679558011049723
sS'25025082000'
p131
F6.05524861878453
sS'25025010203'
p132
F8.182320441988951
sS'25025060400'
p133
F4.541436464088398
sS'25025040801'
p134
F5.027624309392265
sS'25025081001'
p135
F14.104972375690608
sS'25025030300'
p136
F26.77900552486188
sS'25025100400'
p137
F9.6740331491712706
sS'25025130100'
p138
F12.933701657458563
sS'25025090400'
p139
F7.6298342541436464
sS'25025110403'
p140
F6.0497237569060776
sS'25025110401'
p141
F4.165745856353591
sS'25025051101'
p142
F9.2707182320441994
sS'25025980700'
p143
F0.22651933701657459
sS'25025080401'
p144
F17.005524861878452
sS'25025000302'
p145
F2.0607734806629834
sS'25025071101'
p146
F19.038674033149171
sS'25025000301'
p147
F4.5359116022099446
sS'25025082100'
p148
F12.6353591160221
sS'25025010403'
p149
F5.2817679558011053
sS'25025010404'
p150
F4
sS'25025010405'
p151
F6.6961325966850831
sS'25025010408'
p152
F1.1160220994475138
sS'25025060101'
p153
F2.8121546961325965
sS'25025091300'
p154
F8.5635359116022105
sS'25025060600'
p155
F11.707182320441989
sS'25025091200'
p156
F5.4530386740331496
sS'25025050600'
p157
F4.6464088397790055
sS'25025130300'
p158
F6.0939226519337018
sS'25025010500'
p159
F6.2430939226519335
sS'25025081500'
p160
F3.5911602209944751
sS'25025130404'
p161
F2.9392265193370166
sS'25025130406'
p162
F4.3093922651933703
sS'25025092300'
p163
F9.3259668508287294
sS'25025091800'
p164
F7.4143646408839778
sS'25025980300'
p165
F0.4585635359116022
sS'25025050200'
p166
F6.6132596685082872
sS'25025140300'
p167
F14.552486187845304
sS'25025000703'
p168
F4.624309392265193
sS'25025110607'
p169
F8.94475138121547
sS'25025000701'
p170
F6.193370165745856
sS'25025110601'
p171
F2.0165745856353592
sS'25025000704'
p172
F6.1215469613259668
sS'25025981202'
p173
F2.2596685082872927
sS'25025010600'
p174
F18.287292817679557
sS'25025010103'
p175
F1.9005524861878453
sS'25025010104'
p176
F7.4475138121546962
sS'25025061200'
p177
F15.414364640883978
sS'25025070800'
p178
F6.5801104972375688
sS'25025120600'
p179
F2.6629834254143647
s.