(dp1
S'25025091600'
p2
F0.83977900552486184
sS'25025090100'
p3
F0.82872928176795579
sS'25025120700'
p4
F0.082872928176795577
sS'25025070300'
p5
F0.65745856353591159
sS'25025050101'
p6
F0.34806629834254144
sS'25025981700'
p7
F0.016574585635359115
sS'25025081100'
p8
F0.32596685082872928
sS'25025080300'
p9
F0.50828729281767959
sS'25025100500'
p10
F1.1933701657458564
sS'25025110301'
p11
F0.19889502762430938
sS'25025040300'
p12
F0.58011049723756902
sS'25025060800'
p13
F0.27624309392265195
sS'25025120103'
p14
F0.13812154696132597
sS'25025020302'
p15
F0.077348066298342538
sS'25025020303'
p16
F0.58563535911602205
sS'25025000202'
p17
F0.24309392265193369
sS'25025000201'
p18
F0.143646408839779
sS'25025060301'
p19
F0.15469613259668508
sS'25025120105'
p20
F0.18784530386740331
sS'25025120201'
p21
F0.45303867403314918
sS'25025120104'
p22
F0.24309392265193369
sS'25025120301'
p23
F0.97790055248618779
sS'25025061000'
p24
F0.29281767955801102
sS'25025091100'
p25
F0.27624309392265195
sS'25025050700'
p26
F0.35359116022099446
sS'25025030400'
p27
F0.093922651933701654
sS'25025100100'
p28
F1.0386740331491713
sS'25025092101'
p29
F1.2099447513812154
sS'25025081200'
p30
F0.5524861878453039
sS'25025000502'
p31
F0.16574585635359115
sS'25025080100'
p32
F0.61878453038674031
sS'25025050300'
p33
F0.22651933701657459
sS'25025060700'
p34
F0.19337016574585636
sS'25025000602'
p35
F0.82872928176795579
sS'25025081800'
p36
F0.93922651933701662
sS'25025981300'
p37
F0.016574585635359115
sS'25025040600'
p38
F0.51933701657458564
sS'25025080900'
p39
F0.33701657458563539
sS'25025080801'
p40
F0.38674033149171272
sS'25025092000'
p41
F0.89502762430939231
sS'25025090901'
p42
F0.31491712707182318
sS'25025091500'
p43
F0.53591160220994472
sS'25025090300'
p44
F0.56353591160220995
sS'25025010801'
p45
F0.038674033149171269
sS'25025090200'
p46
F0.51381215469613262
sS'25025050400'
p47
F0.21546961325966851
sS'25025100200'
p48
F0.64640883977900554
sS'25025981600'
p49
F0.0055248618784530384
sS'25025000100'
p50
F0.61878453038674031
sS'25025050901'
p51
F0.44198895027624308
sS'25025010204'
p52
F0.18784530386740331
sS'25025101101'
p53
F0.425414364640884
sS'25025101102'
p54
F0.95580110497237569
sS'25025110201'
p55
F0.27624309392265195
sS'25025140400'
p56
F0.61878453038674031
sS'25025000601'
p57
F0.33701657458563539
sS'25025100800'
p58
F0.91712707182320441
sS'25025040200'
p59
F0.17679558011049723
sS'25025020200'
p60
F0.17127071823204421
sS'25025080601'
p61
F0.58011049723756902
sS'25025000503'
p62
F0.044198895027624308
sS'25025000504'
p63
F0.46961325966850831
sS'25025010701'
p64
F0.18784530386740331
sS'25025981100'
p65
F0.016574585635359115
sS'25025081700'
p66
F0.73480662983425415
sS'25025071201'
p67
F0.66298342541436461
sS'25025010702'
p68
F0.47513812154696133
sS'25025090600'
p69
F0.32596685082872928
sS'25025070700'
p70
F0.287292817679558
sS'25025060501'
p71
F0.19337016574585636
sS'25025091001'
p72
F0.45303867403314918
sS'25025030500'
p73
F0.055248618784530384
sS'25025120400'
p74
F0.39779005524861877
sS'25025020301'
p75
F0.17127071823204421
sS'25025000402'
p76
F0.25966850828729282
sS'25025140107'
p77
F0.25966850828729282
sS'25025140106'
p78
F0.082872928176795577
sS'25025140105'
p79
F0.41988950276243092
sS'25025070402'
p80
F0.082872928176795577
sS'25025140102'
p81
F0.48618784530386738
sS'25025040100'
p82
F0.19337016574585636
sS'25025081900'
p83
F0.58011049723756902
sS'25025100601'
p84
F0.66298342541436461
sS'25025981201'
p85
F0.0055248618784530384
sS'25025100603'
p86
F0.13259668508287292
sS'25025081300'
p87
F1.0607734806629834
sS'25025981502'
p88
F0.016574585635359115
sS'25025051000'
p89
F0.2541436464088398
sS'25025030200'
p90
F0.082872928176795577
sS'25025100700'
p91
F0.33701657458563539
sS'25025000803'
p92
F0.10497237569060773
sS'25025000802'
p93
F1.2430939226519337
sS'25025091400'
p94
F0.88950276243093918
sS'25025110502'
p95
F0.43093922651933703
sS'25025110501'
p96
F0.13812154696132597
sS'25025051200'
p97
F0.18232044198895028
sS'25025070101'
p98
F1.6685082872928176
sS'25025010300'
p99
F0.11049723756906077
sS'25025050500'
p100
F0.077348066298342538
sS'25025080500'
p101
F0.58563535911602205
sS'25025060200'
p102
F0.077348066298342538
sS'25025130200'
p103
F0.21546961325966851
sS'25025101001'
p104
F0.91712707182320441
sS'25025101002'
p105
F0.60220994475138123
sS'25025110103'
p106
F0.65745856353591159
sS'25025070900'
p107
F0.31491712707182318
sS'25025130402'
p108
F0.61325966850828728
sS'25025030100'
p109
F0.099447513812154692
sS'25025100300'
p110
F0.38121546961325969
sS'25025070600'
p111
F0.425414364640884
sS'25025981000'
p112
F0
sS'25025081400'
p113
F0.425414364640884
sS'25025090700'
p114
F0.65193370165745856
sS'25025092200'
p115
F0.73480662983425415
sS'25025010802'
p116
F0.027624309392265192
sS'25025091900'
p117
F0.72928176795580113
sS'25025092400'
p118
F1.1823204419889504
sS'25025091700'
p119
F0.54696132596685088
sS'25025140201'
p120
F0.13812154696132597
sS'25025140202'
p121
F0.38674033149171272
sS'25025000401'
p122
F0.13259668508287292
sS'25025100900'
p123
F0.46961325966850831
sS'25025040401'
p124
F0.23756906077348067
sS'25025981800'
p125
F0.027624309392265192
sS'25025061101'
p126
F0.51381215469613262
sS'25025120500'
p127
F0.30386740331491713
sS'25025020101'
p128
F0.088397790055248615
sS'25025070500'
p129
F0.27624309392265195
sS'25025070200'
p130
F0.51933701657458564
sS'25025082000'
p131
F0.49723756906077349
sS'25025010203'
p132
F0.54143646408839774
sS'25025060400'
p133
F0.24861878453038674
sS'25025040801'
p134
F0.32044198895027626
sS'25025081001'
p135
F0.38674033149171272
sS'25025030300'
p136
F0.8729281767955801
sS'25025100400'
p137
F0.87845303867403313
sS'25025130100'
p138
F0.65193370165745856
sS'25025090400'
p139
F0.82320441988950277
sS'25025110403'
p140
F0.34806629834254144
sS'25025110401'
p141
F0.32596685082872928
sS'25025051101'
p142
F0.59116022099447518
sS'25025980700'
p143
F0.011049723756906077
sS'25025080401'
p144
F0.64640883977900554
sS'25025000302'
p145
F0.0718232044198895
sS'25025071101'
p146
F1.1546961325966851
sS'25025000301'
p147
F0.2983425414364641
sS'25025082100'
p148
F0.82872928176795579
sS'25025010403'
p149
F0.19889502762430938
sS'25025010404'
p150
F0.143646408839779
sS'25025010405'
p151
F0.425414364640884
sS'25025010408'
p152
F0.060773480662983423
sS'25025060101'
p153
F0.088397790055248615
sS'25025091300'
p154
F0.43093922651933703
sS'25025060600'
p155
F0.39779005524861877
sS'25025091200'
p156
F0.37569060773480661
sS'25025050600'
p157
F0.23204419889502761
sS'25025130300'
p158
F0.23756906077348067
sS'25025010500'
p159
F0.23756906077348067
sS'25025081500'
p160
F0.16574585635359115
sS'25025130404'
p161
F0.14917127071823205
sS'25025130406'
p162
F0.2983425414364641
sS'25025092300'
p163
F0.87845303867403313
sS'25025091800'
p164
F0.7458563535911602
sS'25025980300'
p165
F0.044198895027624308
sS'25025050200'
p166
F0.43093922651933703
sS'25025140300'
p167
F0.7458563535911602
sS'25025000703'
p168
F0.34254143646408841
sS'25025110607'
p169
F0.40331491712707185
sS'25025000701'
p170
F0.32044198895027626
sS'25025110601'
p171
F0.093922651933701654
sS'25025000704'
p172
F0.25966850828729282
sS'25025981202'
p173
F0.022099447513812154
sS'25025010600'
p174
F0.48618784530386738
sS'25025010103'
p175
F0.11602209944751381
sS'25025010104'
p176
F0.18784530386740331
sS'25025061200'
p177
F0.60773480662983426
sS'25025070800'
p178
F0.26519337016574585
sS'25025120600'
p179
F0.16022099447513813
s.