(dp1
S'25025091600'
p2
F1.0849315068493151
sS'25025090100'
p3
F1.7095890410958905
sS'25025120700'
p4
F0.80000000000000004
sS'25025070300'
p5
F2.1890410958904107
sS'25025050101'
p6
F1.2493150684931507
sS'25025981700'
p7
F0.30958904109589042
sS'25025081100'
p8
F0.85479452054794525
sS'25025080300'
p9
F0.72328767123287674
sS'25025100500'
p10
F2.6657534246575341
sS'25025110301'
p11
F1.1917808219178083
sS'25025040300'
p12
F1.4328767123287671
sS'25025060800'
p13
F1.9205479452054794
sS'25025120103'
p14
F0.92328767123287669
sS'25025020302'
p15
F0.38082191780821917
sS'25025020303'
p16
F0.70958904109589038
sS'25025000202'
p17
F1.1589041095890411
sS'25025000201'
p18
F1.4575342465753425
sS'25025060301'
p19
F1.8684931506849316
sS'25025120105'
p20
F1.2246575342465753
sS'25025120201'
p21
F1.8684931506849316
sS'25025120104'
p22
F1.0931506849315069
sS'25025120301'
p23
F2.0136986301369864
sS'25025061000'
p24
F0.74520547945205484
sS'25025091100'
p25
F2.0520547945205481
sS'25025050700'
p26
F0.98630136986301364
sS'25025030400'
p27
F1.2027397260273973
sS'25025100100'
p28
F1.5698630136986302
sS'25025092101'
p29
F2.5397260273972604
sS'25025081200'
p30
F0.84383561643835614
sS'25025000502'
p31
F0.73698630136986298
sS'25025080100'
p32
F1.6684931506849314
sS'25025050300'
p33
F0.51232876712328768
sS'25025060700'
p34
F0.14246575342465753
sS'25025000602'
p35
F0.82739726027397265
sS'25025081800'
p36
F1.021917808219178
sS'25025981300'
p37
F0.10410958904109589
sS'25025040600'
p38
F1.4575342465753425
sS'25025080900'
p39
F1.4136986301369863
sS'25025080801'
p40
F0.52876712328767128
sS'25025092000'
p41
F1.5890410958904109
sS'25025090901'
p42
F0.25479452054794521
sS'25025091500'
p43
F1.4465753424657535
sS'25025090300'
p44
F0.9452054794520548
sS'25025010801'
p45
F0.60273972602739723
sS'25025090200'
p46
F0.87671232876712324
sS'25025050400'
p47
F0.9178082191780822
sS'25025100200'
p48
F0.82191780821917804
sS'25025981600'
p49
F0.03287671232876712
sS'25025000100'
p50
F1.4328767123287671
sS'25025050901'
p51
F1.2328767123287672
sS'25025010204'
p52
F0.76712328767123283
sS'25025101101'
p53
F0.99726027397260275
sS'25025101102'
p54
F1.1917808219178083
sS'25025110201'
p55
F1.0931506849315069
sS'25025140400'
p56
F1.9616438356164383
sS'25025000601'
p57
F0.9397260273972603
sS'25025100800'
p58
F2.7506849315068491
sS'25025040200'
p59
F0.43835616438356162
sS'25025020200'
p60
F1.989041095890411
sS'25025080601'
p61
F0.92602739726027394
sS'25025000503'
p62
F0.38356164383561642
sS'25025000504'
p63
F0.84109589041095889
sS'25025010701'
p64
F1.1452054794520548
sS'25025981100'
p65
F0.14246575342465753
sS'25025081700'
p66
F1.3753424657534246
sS'25025071201'
p67
F0.64109589041095894
sS'25025010702'
p68
F1.6520547945205479
sS'25025090600'
p69
F0.85479452054794525
sS'25025070700'
p70
F0.89863013698630134
sS'25025060501'
p71
F2.2712328767123289
sS'25025091001'
p72
F1.5232876712328767
sS'25025030500'
p73
F0.989041095890411
sS'25025120400'
p74
F3.1123287671232878
sS'25025020301'
p75
F0.28493150684931506
sS'25025000402'
p76
F1.0246575342465754
sS'25025140107'
p77
F0.85479452054794525
sS'25025140106'
p78
F0.14520547945205478
sS'25025140105'
p79
F1.2164383561643837
sS'25025070402'
p80
F0.25479452054794521
sS'25025140102'
p81
F1.463013698630137
sS'25025040100'
p82
F0.79452054794520544
sS'25025081900'
p83
F1.2273972602739727
sS'25025100601'
p84
F2.1643835616438358
sS'25025981201'
p85
F0.11780821917808219
sS'25025100603'
p86
F1.515068493150685
sS'25025081300'
p87
F1.3780821917808219
sS'25025981502'
p88
F0.0027397260273972603
sS'25025051000'
p89
F1.4657534246575343
sS'25025030200'
p90
F1.0547945205479452
sS'25025100700'
p91
F2.3671232876712329
sS'25025000803'
p92
F0.15616438356164383
sS'25025000802'
p93
F1.8082191780821917
sS'25025091400'
p94
F0.90136986301369859
sS'25025110502'
p95
F1.4657534246575343
sS'25025110501'
p96
F1.263013698630137
sS'25025051200'
p97
F0.83835616438356164
sS'25025070101'
p98
F3.4794520547945207
sS'25025010300'
p99
F0.48493150684931507
sS'25025050500'
p100
F0.46301369863013697
sS'25025080500'
p101
F0.46849315068493153
sS'25025060200'
p102
F1
sS'25025130200'
p103
F2.2602739726027399
sS'25025101001'
p104
F1.5808219178082192
sS'25025101002'
p105
F1.5068493150684932
sS'25025110103'
p106
F2.6958904109589041
sS'25025070900'
p107
F1.6273972602739726
sS'25025130402'
p108
F2.117808219178082
sS'25025030100'
p109
F0.76986301369863008
sS'25025100300'
p110
F1.3753424657534246
sS'25025070600'
p111
F1.106849315068493
sS'25025981000'
p112
F0.041095890410958902
sS'25025081400'
p113
F1.7178082191780821
sS'25025090700'
p114
F2.526027397260274
sS'25025092200'
p115
F1.6630136986301369
sS'25025010802'
p116
F0.9616438356164384
sS'25025091900'
p117
F1.6547945205479453
sS'25025092400'
p118
F1.4657534246575343
sS'25025091700'
p119
F1.0794520547945206
sS'25025140201'
p120
F0.65479452054794518
sS'25025140202'
p121
F1.6684931506849314
sS'25025000401'
p122
F0.99178082191780825
sS'25025100900'
p123
F1.7342465753424658
sS'25025040401'
p124
F0.8849315068493151
sS'25025981800'
p125
F0.23835616438356164
sS'25025061101'
p126
F0.43835616438356162
sS'25025120500'
p127
F0.90136986301369859
sS'25025020101'
p128
F2.0575342465753423
sS'25025070500'
p129
F1.9178082191780821
sS'25025070200'
p130
F1.0164383561643835
sS'25025082000'
p131
F1.0438356164383562
sS'25025010203'
p132
F1.526027397260274
sS'25025060400'
p133
F2.452054794520548
sS'25025040801'
p134
F0.49863013698630138
sS'25025081001'
p135
F1.4684931506849315
sS'25025030300'
p136
F3.2383561643835614
sS'25025100400'
p137
F2.6082191780821917
sS'25025130100'
p138
F2.5643835616438357
sS'25025090400'
p139
F1.2767123287671234
sS'25025110403'
p140
F1.547945205479452
sS'25025110401'
p141
F1.1342465753424658
sS'25025051101'
p142
F2.7287671232876711
sS'25025980700'
p143
F0.079452054794520555
sS'25025080401'
p144
F0.78630136986301369
sS'25025000302'
p145
F1.0657534246575342
sS'25025071101'
p146
F1.6082191780821917
sS'25025000301'
p147
F0.88219178082191785
sS'25025082100'
p148
F0.8794520547945206
sS'25025010403'
p149
F0.46575342465753422
sS'25025010404'
p150
F0.86575342465753424
sS'25025010405'
p151
F0.56712328767123288
sS'25025010408'
p152
F0.40273972602739727
sS'25025060101'
p153
F1.4301369863013698
sS'25025091300'
p154
F0.80273972602739729
sS'25025060600'
p155
F1.3917808219178083
sS'25025091200'
p156
F1.4328767123287671
sS'25025050600'
p157
F0.66027397260273968
sS'25025130300'
p158
F2.6931506849315068
sS'25025010500'
p159
F0.62191780821917808
sS'25025081500'
p160
F0.71506849315068488
sS'25025130404'
p161
F1.3232876712328767
sS'25025130406'
p162
F1.0904109589041096
sS'25025092300'
p163
F1.0630136986301371
sS'25025091800'
p164
F1.4602739726027398
sS'25025980300'
p165
F0.20821917808219179
sS'25025050200'
p166
F1.1452054794520548
sS'25025140300'
p167
F1.9123287671232876
sS'25025000703'
p168
F0.37260273972602742
sS'25025110607'
p169
F2.1397260273972605
sS'25025000701'
p170
F0.41369863013698632
sS'25025110601'
p171
F1.1150684931506849
sS'25025000704'
p172
F0.61369863013698633
sS'25025981202'
p173
F0.19452054794520549
sS'25025010600'
p174
F0.83561643835616439
sS'25025010103'
p175
F0.33698630136986302
sS'25025010104'
p176
F1.0547945205479452
sS'25025061200'
p177
F2.9232876712328766
sS'25025070800'
p178
F1.441095890410959
sS'25025120600'
p179
F1.0328767123287672
s.