(dp1
S'25025091600'
p2
F0.23204419889502761
sS'25025090100'
p3
F0.69613259668508287
sS'25025120700'
p4
F0.041436464088397788
sS'25025070300'
p5
F0.10773480662983426
sS'25025050101'
p6
F0.13535911602209943
sS'25025981700'
p7
F0
sS'25025081100'
p8
F0.080110497237569064
sS'25025080300'
p9
F0.082872928176795577
sS'25025100500'
p10
F0.41988950276243092
sS'25025110301'
p11
F0.099447513812154692
sS'25025040300'
p12
F0.063535911602209949
sS'25025060800'
p13
F0.15469613259668508
sS'25025120103'
p14
F0.033149171270718231
sS'25025020302'
p15
F0.030386740331491711
sS'25025020303'
p16
F0.022099447513812154
sS'25025000202'
p17
F0.024861878453038673
sS'25025000201'
p18
F0.093922651933701654
sS'25025060301'
p19
F0.046961325966850827
sS'25025120105'
p20
F0.013812154696132596
sS'25025120201'
p21
F0.10220994475138122
sS'25025120104'
p22
F0.049723756906077346
sS'25025120301'
p23
F0.17955801104972377
sS'25025061000'
p24
F0.082872928176795577
sS'25025091100'
p25
F0.26243093922651933
sS'25025050700'
p26
F0.143646408839779
sS'25025030400'
p27
F0.066298342541436461
sS'25025100100'
p28
F0.50552486187845302
sS'25025092101'
p29
F0.29005524861878451
sS'25025081200'
p30
F0.20165745856353592
sS'25025000502'
p31
F0.058011049723756904
sS'25025080100'
p32
F0.14640883977900551
sS'25025050300'
p33
F0.058011049723756904
sS'25025060700'
p34
F0.049723756906077346
sS'25025000602'
p35
F0.19337016574585636
sS'25025081800'
p36
F0.26243093922651933
sS'25025981300'
p37
F0.011049723756906077
sS'25025040600'
p38
F0.033149171270718231
sS'25025080900'
p39
F0.19337016574585636
sS'25025080801'
p40
F0.082872928176795577
sS'25025092000'
p41
F0.33425414364640882
sS'25025090901'
p42
F0.10497237569060773
sS'25025091500'
p43
F0.32320441988950277
sS'25025090300'
p44
F0.19889502762430938
sS'25025010801'
p45
F0.027624309392265192
sS'25025090200'
p46
F0.14088397790055249
sS'25025050400'
p47
F0.11049723756906077
sS'25025100200'
p48
F0.25138121546961328
sS'25025981600'
p49
F0
sS'25025000100'
p50
F0.11878453038674033
sS'25025050901'
p51
F0.1132596685082873
sS'25025010204'
p52
F0.058011049723756904
sS'25025101101'
p53
F0.38674033149171272
sS'25025101102'
p54
F0.50828729281767959
sS'25025110201'
p55
F0.060773480662983423
sS'25025140400'
p56
F0.38121546961325969
sS'25025000601'
p57
F0.15193370165745856
sS'25025100800'
p58
F0.22651933701657459
sS'25025040200'
p59
F0.041436464088397788
sS'25025020200'
p60
F0.14917127071823205
sS'25025080601'
p61
F0.13535911602209943
sS'25025000503'
p62
F0.066298342541436461
sS'25025000504'
p63
F0.15193370165745856
sS'25025010701'
p64
F0.069060773480662987
sS'25025981100'
p65
F0
sS'25025081700'
p66
F0.19613259668508287
sS'25025071201'
p67
F0.058011049723756904
sS'25025010702'
p68
F0.074585635359116026
sS'25025090600'
p69
F0.16850828729281769
sS'25025070700'
p70
F0.019337016574585635
sS'25025060501'
p71
F0.046961325966850827
sS'25025091001'
p72
F0.060773480662983423
sS'25025030500'
p73
F0.019337016574585635
sS'25025120400'
p74
F0.16850828729281769
sS'25025020301'
p75
F0.013812154696132596
sS'25025000402'
p76
F0.14088397790055249
sS'25025140107'
p77
F0.12983425414364641
sS'25025140106'
p78
F0.024861878453038673
sS'25025140105'
p79
F0.12430939226519337
sS'25025070402'
p80
F0.011049723756906077
sS'25025140102'
p81
F0.17127071823204421
sS'25025040100'
p82
F0.022099447513812154
sS'25025081900'
p83
F0.23204419889502761
sS'25025100601'
p84
F0.26519337016574585
sS'25025981201'
p85
F0.0055248618784530384
sS'25025100603'
p86
F0.049723756906077346
sS'25025081300'
p87
F0.31215469613259667
sS'25025981502'
p88
F0
sS'25025051000'
p89
F0.058011049723756904
sS'25025030200'
p90
F0.024861878453038673
sS'25025100700'
p91
F0.082872928176795577
sS'25025000803'
p92
F0.011049723756906077
sS'25025000802'
p93
F0.35911602209944754
sS'25025091400'
p94
F0.10773480662983426
sS'25025110502'
p95
F0.12430939226519337
sS'25025110501'
p96
F0.041436464088397788
sS'25025051200'
p97
F0.10773480662983426
sS'25025070101'
p98
F0.063535911602209949
sS'25025010300'
p99
F0.0055248618784530384
sS'25025050500'
p100
F0.033149171270718231
sS'25025080500'
p101
F0.17679558011049723
sS'25025060200'
p102
F0.016574585635359115
sS'25025130200'
p103
F0.033149171270718231
sS'25025101001'
p104
F0.33701657458563539
sS'25025101002'
p105
F0.38121546961325969
sS'25025110103'
p106
F0.17403314917127072
sS'25025070900'
p107
F0.10773480662983426
sS'25025130402'
p108
F0.077348066298342538
sS'25025030100'
p109
F0.063535911602209949
sS'25025100300'
p110
F0.15469613259668508
sS'25025070600'
p111
F0.03591160220994475
sS'25025981000'
p112
F0
sS'25025081400'
p113
F0.22651933701657459
sS'25025090700'
p114
F0.15193370165745856
sS'25025092200'
p115
F0.15469613259668508
sS'25025010802'
p116
F0.074585635359116026
sS'25025091900'
p117
F0.22651933701657459
sS'25025092400'
p118
F0.45303867403314918
sS'25025091700'
p119
F0.24309392265193369
sS'25025140201'
p120
F0.046961325966850827
sS'25025140202'
p121
F0.10773480662983426
sS'25025000401'
p122
F0.14088397790055249
sS'25025100900'
p123
F0.19889502762430938
sS'25025040401'
p124
F0.055248618784530384
sS'25025981800'
p125
F0
sS'25025061101'
p126
F0.16850828729281769
sS'25025120500'
p127
F0.082872928176795577
sS'25025020101'
p128
F0.11602209944751381
sS'25025070500'
p129
F0.049723756906077346
sS'25025070200'
p130
F0.027624309392265192
sS'25025082000'
p131
F0.32596685082872928
sS'25025010203'
p132
F0.13535911602209943
sS'25025060400'
p133
F0.088397790055248615
sS'25025040801'
p134
F0.0718232044198895
sS'25025081001'
p135
F0.12154696132596685
sS'25025030300'
p136
F0.13535911602209943
sS'25025100400'
p137
F0.212707182320442
sS'25025130100'
p138
F0.0718232044198895
sS'25025090400'
p139
F0.38397790055248621
sS'25025110403'
p140
F0.099447513812154692
sS'25025110401'
p141
F0.12154696132596685
sS'25025051101'
p142
F0.25690607734806631
sS'25025980700'
p143
F0
sS'25025080401'
p144
F0.22375690607734808
sS'25025000302'
p145
F0.027624309392265192
sS'25025071101'
p146
F0.1132596685082873
sS'25025000301'
p147
F0.055248618784530384
sS'25025082100'
p148
F0.2541436464088398
sS'25025010403'
p149
F0.063535911602209949
sS'25025010404'
p150
F0.12154696132596685
sS'25025010405'
p151
F0.11602209944751381
sS'25025010408'
p152
F0.016574585635359115
sS'25025060101'
p153
F0.044198895027624308
sS'25025091300'
p154
F0.143646408839779
sS'25025060600'
p155
F0.044198895027624308
sS'25025091200'
p156
F0.16022099447513813
sS'25025050600'
p157
F0.041436464088397788
sS'25025130300'
p158
F0.052486187845303865
sS'25025010500'
p159
F0.052486187845303865
sS'25025081500'
p160
F0.12430939226519337
sS'25025130404'
p161
F0.038674033149171269
sS'25025130406'
p162
F0.143646408839779
sS'25025092300'
p163
F0.16022099447513813
sS'25025091800'
p164
F0.19613259668508287
sS'25025980300'
p165
F0.0055248618784530384
sS'25025050200'
p166
F0.19889502762430938
sS'25025140300'
p167
F0.33701657458563539
sS'25025000703'
p168
F0.11602209944751381
sS'25025110607'
p169
F0.074585635359116026
sS'25025000701'
p170
F0.1270718232044199
sS'25025110601'
p171
F0.011049723756906077
sS'25025000704'
p172
F0.19060773480662985
sS'25025981202'
p173
F0
sS'25025010600'
p174
F0.041436464088397788
sS'25025010103'
p175
F0
sS'25025010104'
p176
F0.066298342541436461
sS'25025061200'
p177
F0.10773480662983426
sS'25025070800'
p178
F0.074585635359116026
sS'25025120600'
p179
F0.044198895027624308
s.