(dp1
S'25025091600'
p2
F0.14246575342465753
sS'25025090100'
p3
F0.21917808219178081
sS'25025120700'
p4
F0.10684931506849316
sS'25025070300'
p5
F1.010958904109589
sS'25025050101'
p6
F0.22191780821917809
sS'25025981700'
p7
F0.046575342465753428
sS'25025081100'
p8
F0.25205479452054796
sS'25025080300'
p9
F0.073972602739726029
sS'25025100500'
p10
F0.18630136986301371
sS'25025110301'
p11
F0.10136986301369863
sS'25025040300'
p12
F0.10136986301369863
sS'25025060800'
p13
F0.20821917808219179
sS'25025120103'
p14
F0.11506849315068493
sS'25025020302'
p15
F0.13150684931506848
sS'25025020303'
p16
F0.15342465753424658
sS'25025000202'
p17
F0.076712328767123292
sS'25025000201'
p18
F0.12602739726027398
sS'25025060301'
p19
F0.14794520547945206
sS'25025120105'
p20
F0.019178082191780823
sS'25025120201'
p21
F0.29315068493150687
sS'25025120104'
p22
F0.10684931506849316
sS'25025120301'
p23
F0.22739726027397261
sS'25025061000'
p24
F0.030136986301369864
sS'25025091100'
p25
F0.29315068493150687
sS'25025050700'
p26
F0.35616438356164382
sS'25025030400'
p27
F0.51232876712328768
sS'25025100100'
p28
F0.10410958904109589
sS'25025092101'
p29
F0.32054794520547947
sS'25025081200'
p30
F0.090410958904109592
sS'25025000502'
p31
F0.087671232876712329
sS'25025080100'
p32
F0.17260273972602741
sS'25025050300'
p33
F0.22465753424657534
sS'25025060700'
p34
F0.019178082191780823
sS'25025000602'
p35
F0.24931506849315069
sS'25025081800'
p36
F0.090410958904109592
sS'25025981300'
p37
F0
sS'25025040600'
p38
F0.23561643835616439
sS'25025080900'
p39
F0.38630136986301372
sS'25025080801'
p40
F0.030136986301369864
sS'25025092000'
p41
F0.29863013698630136
sS'25025090901'
p42
F0.013698630136986301
sS'25025091500'
p43
F0.24109589041095891
sS'25025090300'
p44
F0.13972602739726028
sS'25025010801'
p45
F0.18356164383561643
sS'25025090200'
p46
F0.12054794520547946
sS'25025050400'
p47
F0.16164383561643836
sS'25025100200'
p48
F0.054794520547945202
sS'25025981600'
p49
F0
sS'25025000100'
p50
F0.26849315068493151
sS'25025050901'
p51
F0.30410958904109592
sS'25025010204'
p52
F0.18904109589041096
sS'25025101101'
p53
F0.027397260273972601
sS'25025101102'
p54
F0.076712328767123292
sS'25025110201'
p55
F0.13150684931506848
sS'25025140400'
p56
F0.13150684931506848
sS'25025000601'
p57
F0.19178082191780821
sS'25025100800'
p58
F0.087671232876712329
sS'25025040200'
p59
F0.024657534246575342
sS'25025020200'
p60
F0.67945205479452053
sS'25025080601'
p61
F0.11232876712328767
sS'25025000503'
p62
F0.11232876712328767
sS'25025000504'
p63
F0.22465753424657534
sS'25025010701'
p64
F0.52876712328767128
sS'25025981100'
p65
F0
sS'25025081700'
p66
F0.060273972602739728
sS'25025071201'
p67
F0.073972602739726029
sS'25025010702'
p68
F0.48493150684931507
sS'25025090600'
p69
F0.10410958904109589
sS'25025070700'
p70
F0.20000000000000001
sS'25025060501'
p71
F0.14794520547945206
sS'25025091001'
p72
F0.14794520547945206
sS'25025030500'
p73
F0.26027397260273971
sS'25025120400'
p74
F0.51232876712328768
sS'25025020301'
p75
F0.030136986301369864
sS'25025000402'
p76
F0.12602739726027398
sS'25025140107'
p77
F0.021917808219178082
sS'25025140106'
p78
F0.0027397260273972603
sS'25025140105'
p79
F0.057534246575342465
sS'25025070402'
p80
F0.093150684931506855
sS'25025140102'
p81
F0.043835616438356165
sS'25025040100'
p82
F0.098630136986301367
sS'25025081900'
p83
F0.11232876712328767
sS'25025100601'
p84
F0.12328767123287671
sS'25025981201'
p85
F0.010958904109589041
sS'25025100603'
p86
F0.060273972602739728
sS'25025081300'
p87
F0.19726027397260273
sS'25025981502'
p88
F0
sS'25025051000'
p89
F0.28219178082191781
sS'25025030200'
p90
F0.46301369863013697
sS'25025100700'
p91
F0.093150684931506855
sS'25025000803'
p92
F0.041095890410958902
sS'25025000802'
p93
F1.189041095890411
sS'25025091400'
p94
F0.1095890410958904
sS'25025110502'
p95
F0.16986301369863013
sS'25025110501'
p96
F0.035616438356164383
sS'25025051200'
p97
F0.12602739726027398
sS'25025070101'
p98
F0.62465753424657533
sS'25025010300'
p99
F0.13424657534246576
sS'25025050500'
p100
F0.052054794520547946
sS'25025080500'
p101
F0.041095890410958902
sS'25025060200'
p102
F0.079452054794520555
sS'25025130200'
p103
F0.073972602739726029
sS'25025101001'
p104
F0.14794520547945206
sS'25025101002'
p105
F0.073972602739726029
sS'25025110103'
p106
F0.25753424657534246
sS'25025070900'
p107
F0.41369863013698632
sS'25025130402'
p108
F0.10410958904109589
sS'25025030100'
p109
F0.27945205479452057
sS'25025100300'
p110
F0.027397260273972601
sS'25025070600'
p111
F0.24931506849315069
sS'25025981000'
p112
F0.01643835616438356
sS'25025081400'
p113
F0.20000000000000001
sS'25025090700'
p114
F0.31780821917808222
sS'25025092200'
p115
F0.25479452054794521
sS'25025010802'
p116
F0.44931506849315067
sS'25025091900'
p117
F0.12328767123287671
sS'25025092400'
p118
F0.10684931506849316
sS'25025091700'
p119
F0.1095890410958904
sS'25025140201'
p120
F0.043835616438356165
sS'25025140202'
p121
F0.049315068493150684
sS'25025000401'
p122
F0.18082191780821918
sS'25025100900'
p123
F0.06575342465753424
sS'25025040401'
p124
F0.12328767123287671
sS'25025981800'
p125
F0.049315068493150684
sS'25025061101'
p126
F0.038356164383561646
sS'25025120500'
p127
F0.079452054794520555
sS'25025020101'
p128
F0.51232876712328768
sS'25025070500'
p129
F0.44109589041095892
sS'25025070200'
p130
F0.35890410958904112
sS'25025082000'
p131
F0.15342465753424658
sS'25025010203'
p132
F0.60547945205479448
sS'25025060400'
p133
F0.40821917808219177
sS'25025040801'
p134
F0.12328767123287671
sS'25025081001'
p135
F0.31506849315068491
sS'25025030300'
p136
F0.64109589041095894
sS'25025100400'
p137
F0.15342465753424658
sS'25025130100'
p138
F0.10684931506849316
sS'25025090400'
p139
F0.15342465753424658
sS'25025110403'
p140
F0.13698630136986301
sS'25025110401'
p141
F0.18630136986301371
sS'25025051101'
p142
F0.29041095890410956
sS'25025980700'
p143
F0
sS'25025080401'
p144
F0.095890410958904104
sS'25025000302'
p145
F0.052054794520547946
sS'25025071101'
p146
F0.31232876712328766
sS'25025000301'
p147
F0.093150684931506855
sS'25025082100'
p148
F0.087671232876712329
sS'25025010403'
p149
F0.18356164383561643
sS'25025010404'
p150
F0.26027397260273971
sS'25025010405'
p151
F0.16438356164383561
sS'25025010408'
p152
F0.054794520547945202
sS'25025060101'
p153
F0.073972602739726029
sS'25025091300'
p154
F0.18630136986301371
sS'25025060600'
p155
F0.16164383561643836
sS'25025091200'
p156
F0.20000000000000001
sS'25025050600'
p157
F0.15068493150684931
sS'25025130300'
p158
F0.049315068493150684
sS'25025010500'
p159
F0.31506849315068491
sS'25025081500'
p160
F0.046575342465753428
sS'25025130404'
p161
F0.052054794520547946
sS'25025130406'
p162
F0.052054794520547946
sS'25025092300'
p163
F0.057534246575342465
sS'25025091800'
p164
F0.13424657534246576
sS'25025980300'
p165
F0
sS'25025050200'
p166
F0.40273972602739727
sS'25025140300'
p167
F0.12328767123287671
sS'25025000703'
p168
F0.27945205479452057
sS'25025110607'
p169
F0.16164383561643836
sS'25025000701'
p170
F0.34794520547945207
sS'25025110601'
p171
F0.027397260273972601
sS'25025000704'
p172
F0.42191780821917807
sS'25025981202'
p173
F0.01643835616438356
sS'25025010600'
p174
F0.20547945205479451
sS'25025010103'
p175
F0.021917808219178082
sS'25025010104'
p176
F0.32602739726027397
sS'25025061200'
p177
F0.35890410958904112
sS'25025070800'
p178
F0.33972602739726027
sS'25025120600'
p179
F0.15068493150684931
s.