(dp1
S'25025091600'
p2
F1.1616438356164382
sS'25025090100'
p3
F2.043835616438356
sS'25025120700'
p4
F0.58630136986301373
sS'25025070300'
p5
F3.6602739726027398
sS'25025050101'
p6
F1.6054794520547946
sS'25025981700'
p7
F0.32054794520547947
sS'25025081100'
p8
F1.189041095890411
sS'25025080300'
p9
F0.84383561643835614
sS'25025100500'
p10
F2.2575342465753425
sS'25025110301'
p11
F1.473972602739726
sS'25025040300'
p12
F2.0876712328767124
sS'25025060800'
p13
F1.4547945205479451
sS'25025120103'
p14
F0.77808219178082194
sS'25025020302'
p15
F0.67671232876712328
sS'25025020303'
p16
F0.78082191780821919
sS'25025000202'
p17
F1.3041095890410959
sS'25025000201'
p18
F1.2301369863013698
sS'25025060301'
p19
F1.2602739726027397
sS'25025120105'
p20
F1.0547945205479452
sS'25025120201'
p21
F1.7726027397260273
sS'25025120104'
p22
F0.95616438356164379
sS'25025120301'
p23
F2.1452054794520548
sS'25025061000'
p24
F0.60547945205479448
sS'25025091100'
p25
F2.0301369863013701
sS'25025050700'
p26
F2.0465753424657533
sS'25025030400'
p27
F1.6301369863013699
sS'25025100100'
p28
F1.5178082191780822
sS'25025092101'
p29
F3.0821917808219177
sS'25025081200'
p30
F0.50136986301369868
sS'25025000502'
p31
F0.9123287671232877
sS'25025080100'
p32
F2.0876712328767124
sS'25025050300'
p33
F0.90136986301369859
sS'25025060700'
p34
F0.095890410958904104
sS'25025000602'
p35
F1.0136986301369864
sS'25025081800'
p36
F1.2410958904109588
sS'25025981300'
p37
F0.087671232876712329
sS'25025040600'
p38
F2.7205479452054795
sS'25025080900'
p39
F0.94794520547945205
sS'25025080801'
p40
F0.32876712328767121
sS'25025092000'
p41
F2.2328767123287672
sS'25025090901'
p42
F0.18904109589041096
sS'25025091500'
p43
F1.9123287671232876
sS'25025090300'
p44
F1.2438356164383562
sS'25025010801'
p45
F0.74246575342465748
sS'25025090200'
p46
F1.0301369863013699
sS'25025050400'
p47
F0.97534246575342465
sS'25025100200'
p48
F0.74794520547945209
sS'25025981600'
p49
F0.021917808219178082
sS'25025000100'
p50
F1.7123287671232876
sS'25025050901'
p51
F2.0821917808219177
sS'25025010204'
p52
F0.90136986301369859
sS'25025101101'
p53
F0.79726027397260268
sS'25025101102'
p54
F1.3287671232876712
sS'25025110201'
p55
F1.1315068493150684
sS'25025140400'
p56
F3.8958904109589043
sS'25025000601'
p57
F1.252054794520548
sS'25025100800'
p58
F2.2849315068493152
sS'25025040200'
p59
F0.76712328767123283
sS'25025020200'
p60
F1.8602739726027397
sS'25025080601'
p61
F1.0986301369863014
sS'25025000503'
p62
F0.61917808219178083
sS'25025000504'
p63
F1.2410958904109588
sS'25025010701'
p64
F1.810958904109589
sS'25025981100'
p65
F0.23835616438356164
sS'25025081700'
p66
F1.4493150684931506
sS'25025071201'
p67
F0.76164383561643834
sS'25025010702'
p68
F2.4356164383561643
sS'25025090600'
p69
F1
sS'25025070700'
p70
F1.1726027397260275
sS'25025060501'
p71
F1.5397260273972602
sS'25025091001'
p72
F1.4164383561643836
sS'25025030500'
p73
F0.8904109589041096
sS'25025120400'
p74
F3.5835616438356164
sS'25025020301'
p75
F0.36986301369863012
sS'25025000402'
p76
F1.3589041095890411
sS'25025140107'
p77
F1.1643835616438356
sS'25025140106'
p78
F0.29315068493150687
sS'25025140105'
p79
F2.5726027397260274
sS'25025070402'
p80
F0.48493150684931507
sS'25025140102'
p81
F3.2602739726027399
sS'25025040100'
p82
F1.3616438356164384
sS'25025081900'
p83
F1.295890410958904
sS'25025100601'
p84
F1.6000000000000001
sS'25025981201'
p85
F0.06575342465753424
sS'25025100603'
p86
F0.8575342465753425
sS'25025081300'
p87
F1.3506849315068492
sS'25025981502'
p88
F0.0027397260273972603
sS'25025051000'
p89
F1.6082191780821917
sS'25025030200'
p90
F1.1643835616438356
sS'25025100700'
p91
F1.6602739726027398
sS'25025000803'
p92
F0.26301369863013696
sS'25025000802'
p93
F3.0712328767123287
sS'25025091400'
p94
F1.452054794520548
sS'25025110502'
p95
F2.452054794520548
sS'25025110501'
p96
F1.7972602739726027
sS'25025051200'
p97
F1.1369863013698631
sS'25025070101'
p98
F3.6027397260273974
sS'25025010300'
p99
F0.62191780821917808
sS'25025050500'
p100
F0.53972602739726028
sS'25025080500'
p101
F0.36712328767123287
sS'25025060200'
p102
F0.77808219178082194
sS'25025130200'
p103
F3.0739726027397261
sS'25025101001'
p104
F2.6246575342465754
sS'25025101002'
p105
F1.4958904109589042
sS'25025110103'
p106
F3.3479452054794518
sS'25025070900'
p107
F1.4301369863013698
sS'25025130402'
p108
F2.8027397260273972
sS'25025030100'
p109
F0.94794520547945205
sS'25025100300'
p110
F0.86849315068493149
sS'25025070600'
p111
F1.2575342465753425
sS'25025981000'
p112
F0.079452054794520555
sS'25025081400'
p113
F2.0027397260273974
sS'25025090700'
p114
F2.3726027397260272
sS'25025092200'
p115
F1.9643835616438357
sS'25025010802'
p116
F1.3205479452054794
sS'25025091900'
p117
F2.1561643835616437
sS'25025092400'
p118
F1.4356164383561645
sS'25025091700'
p119
F1.1287671232876713
sS'25025140201'
p120
F1.4082191780821918
sS'25025140202'
p121
F2.4657534246575343
sS'25025000401'
p122
F1.7863013698630137
sS'25025100900'
p123
F1.5616438356164384
sS'25025040401'
p124
F1.3972602739726028
sS'25025981800'
p125
F0.20547945205479451
sS'25025061101'
p126
F0.25205479452054796
sS'25025120500'
p127
F0.9780821917808219
sS'25025020101'
p128
F2.8465753424657536
sS'25025070500'
p129
F2.0904109589041098
sS'25025070200'
p130
F1.6109589041095891
sS'25025082000'
p131
F1.0849315068493151
sS'25025010203'
p132
F1.6712328767123288
sS'25025060400'
p133
F2.1780821917808217
sS'25025040801'
p134
F0.75616438356164384
sS'25025081001'
p135
F1.6000000000000001
sS'25025030300'
p136
F4.9424657534246572
sS'25025100400'
p137
F1.4684931506849315
sS'25025130100'
p138
F2.8520547945205479
sS'25025090400'
p139
F1.5041095890410958
sS'25025110403'
p140
F2.6602739726027398
sS'25025110401'
p141
F1.3041095890410959
sS'25025051101'
p142
F3.495890410958904
sS'25025980700'
p143
F0.057534246575342465
sS'25025080401'
p144
F0.98082191780821915
sS'25025000302'
p145
F1.2
sS'25025071101'
p146
F1.6684931506849314
sS'25025000301'
p147
F0.97534246575342465
sS'25025082100'
p148
F0.92602739726027394
sS'25025010403'
p149
F0.73150684931506849
sS'25025010404'
p150
F0.80000000000000004
sS'25025010405'
p151
F0.59999999999999998
sS'25025010408'
p152
F0.26849315068493151
sS'25025060101'
p153
F0.82739726027397265
sS'25025091300'
p154
F0.96986301369863015
sS'25025060600'
p155
F1.3013698630136987
sS'25025091200'
p156
F1.5917808219178082
sS'25025050600'
p157
F0.83013698630136989
sS'25025130300'
p158
F2.7123287671232879
sS'25025010500'
p159
F1.3698630136986301
sS'25025081500'
p160
F0.86849315068493149
sS'25025130404'
p161
F1.9424657534246574
sS'25025130406'
p162
F0.78356164383561644
sS'25025092300'
p163
F1.2602739726027397
sS'25025091800'
p164
F1.4493150684931506
sS'25025980300'
p165
F0.11780821917808219
sS'25025050200'
p166
F2.1616438356164385
sS'25025140300'
p167
F3.7260273972602738
sS'25025000703'
p168
F0.71780821917808224
sS'25025110607'
p169
F2.8356164383561642
sS'25025000701'
p170
F1.0383561643835617
sS'25025110601'
p171
F1.5780821917808219
sS'25025000704'
p172
F1.106849315068493
sS'25025981202'
p173
F0.23013698630136986
sS'25025010600'
p174
F0.989041095890411
sS'25025010103'
p175
F0.32876712328767121
sS'25025010104'
p176
F1.3835616438356164
sS'25025061200'
p177
F2.7616438356164386
sS'25025070800'
p178
F1.6328767123287671
sS'25025120600'
p179
F1.252054794520548
s.